; Function Attrs: nounwind uwtable
define dso_local range(i32 -1, 8) i32 @PyFunction_AddWatcher(ptr noundef %0) local_unnamed_addr #0 {
  %2 = tail call align 8 ptr @llvm.threadlocal.address.p0(ptr align 8 @_Py_tss_tstate)
  %3 = load ptr, ptr %2, align 8, !tbaa !4
  %4 = getelementptr inbounds nuw i8, ptr %3, i64 16
  %5 = load ptr, ptr %4, align 8, !tbaa !9
  %6 = getelementptr inbounds nuw i8, ptr %5, i64 8480
  br label %7

7:                                                ; preds = %1, %19
  %indvars.iv = phi i64 [ 0, %1 ], [ %indvars.iv.next, %19 ]
  %8 = getelementptr [8 x ptr], ptr %6, i64 0, i64 %indvars.iv
  %9 = load ptr, ptr %8, align 8, !tbaa !21
  %10 = icmp eq ptr %9, null
  br i1 %10, label %11, label %19

11:                                               ; preds = %7
  %12 = getelementptr [8 x ptr], ptr %6, i64 0, i64 %indvars.iv
  %13 = trunc nuw nsw i64 %indvars.iv to i32
  store ptr %0, ptr %12, align 8, !tbaa !21
  %14 = shl nuw nsw i32 1, %13
  %15 = getelementptr inbounds nuw i8, ptr %5, i64 8544
  %16 = load i8, ptr %15, align 8, !tbaa !22
  %17 = trunc nuw i32 %14 to i8
  %18 = or i8 %16, %17
  store i8 %18, ptr %15, align 8, !tbaa !22
  br label %21

19:                                               ; preds = %7
  %indvars.iv.next = add nuw nsw i64 %indvars.iv, 1
  %exitcond = icmp eq i64 %indvars.iv.next, 8
  br i1 %exitcond, label %.critedge, label %7, !llvm.loop !94

.critedge:                                        ; preds = %19
  %20 = load ptr, ptr @PyExc_RuntimeError, align 8, !tbaa !96
  tail call void @PyErr_SetString(ptr noundef %20, ptr noundef nonnull @.str) #8
  br label %21

21:                                               ; preds = %11, %.critedge
  %.1 = phi i32 [ -1, %.critedge ], [ %13, %11 ]
  ret i32 %.1
}